; Listing generated by Microsoft (R) Optimizing Compiler Version 19.38.33139.0 

include listing.inc

INCLUDELIB MSVCRTD
INCLUDELIB OLDNAMES

PUBLIC	antlr3MTNExceptionNew
PUBLIC	antlr3TreeParserNewStream
PUBLIC	??_C@_0CO@BHFJHLHM@org?4antlr?4runtime?4MismatchedTre@ ; `string'
PUBLIC	??_C@_09MLMDPBIO@?$DMmissing?5@			; `string'
PUBLIC	??_C@_01PPODPGHN@?$DO@				; `string'
EXTRN	__imp_free:PROC
EXTRN	__imp_malloc:PROC
EXTRN	antlr3BaseRecognizerNew:PROC
EXTRN	antlr3RecognitionExceptionNew:PROC
EXTRN	_RTC_InitBase:PROC
EXTRN	_RTC_Shutdown:PROC
;	COMDAT pdata
pdata	SEGMENT
$pdata$antlr3MTNExceptionNew DD imagerel $LN3
	DD	imagerel $LN3+69
	DD	imagerel $unwind$antlr3MTNExceptionNew
pdata	ENDS
;	COMDAT pdata
pdata	SEGMENT
$pdata$antlr3TreeParserNewStream DD imagerel $LN5
	DD	imagerel $LN5+309
	DD	imagerel $unwind$antlr3TreeParserNewStream
pdata	ENDS
;	COMDAT pdata
pdata	SEGMENT
$pdata$mismatch DD imagerel mismatch
	DD	imagerel mismatch+66
	DD	imagerel $unwind$mismatch
pdata	ENDS
;	COMDAT pdata
pdata	SEGMENT
$pdata$setTreeNodeStream DD imagerel setTreeNodeStream
	DD	imagerel setTreeNodeStream+83
	DD	imagerel $unwind$setTreeNodeStream
pdata	ENDS
;	COMDAT pdata
pdata	SEGMENT
$pdata$getTreeNodeStream DD imagerel getTreeNodeStream
	DD	imagerel getTreeNodeStream+17
	DD	imagerel $unwind$getTreeNodeStream
pdata	ENDS
;	COMDAT pdata
pdata	SEGMENT
$pdata$freeParser DD imagerel freeParser
	DD	imagerel freeParser+184
	DD	imagerel $unwind$freeParser
pdata	ENDS
;	COMDAT pdata
pdata	SEGMENT
$pdata$getCurrentInputSymbol DD imagerel getCurrentInputSymbol
	DD	imagerel getCurrentInputSymbol+66
	DD	imagerel $unwind$getCurrentInputSymbol
pdata	ENDS
;	COMDAT pdata
pdata	SEGMENT
$pdata$getMissingSymbol DD imagerel getMissingSymbol
	DD	imagerel getMissingSymbol+336
	DD	imagerel $unwind$getMissingSymbol
pdata	ENDS
;	COMDAT rtc$TMZ
rtc$TMZ	SEGMENT
_RTC_Shutdown.rtc$TMZ DQ FLAT:_RTC_Shutdown
rtc$TMZ	ENDS
;	COMDAT rtc$IMZ
rtc$IMZ	SEGMENT
_RTC_InitBase.rtc$IMZ DQ FLAT:_RTC_InitBase
rtc$IMZ	ENDS
;	COMDAT ??_C@_01PPODPGHN@?$DO@
CONST	SEGMENT
??_C@_01PPODPGHN@?$DO@ DB '>', 00H			; `string'
CONST	ENDS
;	COMDAT ??_C@_09MLMDPBIO@?$DMmissing?5@
CONST	SEGMENT
??_C@_09MLMDPBIO@?$DMmissing?5@ DB '<missing ', 00H	; `string'
CONST	ENDS
;	COMDAT ??_C@_0CO@BHFJHLHM@org?4antlr?4runtime?4MismatchedTre@
CONST	SEGMENT
??_C@_0CO@BHFJHLHM@org?4antlr?4runtime?4MismatchedTre@ DB 'org.antlr.runt'
	DB	'ime.MismatchedTreeNodeException', 00H	; `string'
CONST	ENDS
;	COMDAT xdata
xdata	SEGMENT
$unwind$getMissingSymbol DD 021901H
	DD	07015b219H
xdata	ENDS
;	COMDAT xdata
xdata	SEGMENT
$unwind$getCurrentInputSymbol DD 020f01H
	DD	0700b520fH
xdata	ENDS
;	COMDAT xdata
xdata	SEGMENT
$unwind$freeParser DD 020a01H
	DD	07006520aH
xdata	ENDS
;	COMDAT xdata
xdata	SEGMENT
$unwind$getTreeNodeStream DD 010601H
	DD	07006H
xdata	ENDS
;	COMDAT xdata
xdata	SEGMENT
$unwind$setTreeNodeStream DD 020f01H
	DD	0700b320fH
xdata	ENDS
;	COMDAT xdata
xdata	SEGMENT
$unwind$mismatch DD 021301H
	DD	0700f3213H
xdata	ENDS
;	COMDAT xdata
xdata	SEGMENT
$unwind$antlr3TreeParserNewStream DD 021301H
	DD	0700f5213H
xdata	ENDS
;	COMDAT xdata
xdata	SEGMENT
$unwind$antlr3MTNExceptionNew DD 020a01H
	DD	07006320aH
xdata	ENDS
; Function compile flags: /Odtp /RTCsu
; File C:\SPO_LAB3\Nix_LabN1\libantlr3c-3.4\src\antlr3treeparser.c
;	COMDAT getMissingSymbol
_TEXT	SEGMENT
tns$ = 32
ctns$ = 40
node$ = 48
current$ = 56
token$ = 64
text$ = 72
i$ = 80
tv83 = 84
recognizer$ = 112
istream$ = 120
e$ = 128
expectedTokenType$ = 136
follow$ = 144
getMissingSymbol PROC					; COMDAT

; 206  : {

  00000	44 89 4c 24 20	 mov	 DWORD PTR [rsp+32], r9d
  00005	4c 89 44 24 18	 mov	 QWORD PTR [rsp+24], r8
  0000a	48 89 54 24 10	 mov	 QWORD PTR [rsp+16], rdx
  0000f	48 89 4c 24 08	 mov	 QWORD PTR [rsp+8], rcx
  00014	57		 push	 rdi
  00015	48 83 ec 60	 sub	 rsp, 96			; 00000060H

; 207  : 	pANTLR3_TREE_NODE_STREAM		tns;
; 208  :     pANTLR3_COMMON_TREE_NODE_STREAM	ctns;
; 209  : 	pANTLR3_BASE_TREE				node;
; 210  : 	pANTLR3_BASE_TREE				current;
; 211  : 	pANTLR3_COMMON_TOKEN			token;
; 212  : 	pANTLR3_STRING					text;
; 213  :     ANTLR3_INT32                   i;
; 214  : 
; 215  : 	// Dereference the standard pointers
; 216  : 	//
; 217  :     tns	    = (pANTLR3_TREE_NODE_STREAM)(istream->super);

  00019	48 8b 44 24 78	 mov	 rax, QWORD PTR istream$[rsp]
  0001e	48 8b 40 10	 mov	 rax, QWORD PTR [rax+16]
  00022	48 89 44 24 20	 mov	 QWORD PTR tns$[rsp], rax

; 218  :     ctns    = tns->ctns;

  00027	48 8b 44 24 20	 mov	 rax, QWORD PTR tns$[rsp]
  0002c	48 8b 00	 mov	 rax, QWORD PTR [rax]
  0002f	48 89 44 24 28	 mov	 QWORD PTR ctns$[rsp], rax

; 219  :     
; 220  : 	// Create a new empty node, by stealing the current one, or the previous one if the current one is EOF
; 221  : 	//
; 222  : 	current	= tns->_LT(tns, 1);

  00034	ba 01 00 00 00	 mov	 edx, 1
  00039	48 8b 4c 24 20	 mov	 rcx, QWORD PTR tns$[rsp]
  0003e	48 8b 44 24 20	 mov	 rax, QWORD PTR tns$[rsp]
  00043	ff 50 10	 call	 QWORD PTR [rax+16]
  00046	48 89 44 24 38	 mov	 QWORD PTR current$[rsp], rax

; 223  :     i       = -1;

  0004b	c7 44 24 50 ff
	ff ff ff	 mov	 DWORD PTR i$[rsp], -1

; 224  : 
; 225  : 	if	(current == &ctns->EOF_NODE.baseTree)

  00053	48 8b 44 24 28	 mov	 rax, QWORD PTR ctns$[rsp]
  00058	48 05 c0 02 00
	00		 add	 rax, 704		; 000002c0H
  0005e	48 39 44 24 38	 cmp	 QWORD PTR current$[rsp], rax
  00063	75 21		 jne	 SHORT $LN4@getMissing

; 226  : 	{
; 227  : 		current = tns->_LT(tns, -1);

  00065	ba ff ff ff ff	 mov	 edx, -1
  0006a	48 8b 4c 24 20	 mov	 rcx, QWORD PTR tns$[rsp]
  0006f	48 8b 44 24 20	 mov	 rax, QWORD PTR tns$[rsp]
  00074	ff 50 10	 call	 QWORD PTR [rax+16]
  00077	48 89 44 24 38	 mov	 QWORD PTR current$[rsp], rax

; 228  :         i--;

  0007c	8b 44 24 50	 mov	 eax, DWORD PTR i$[rsp]
  00080	ff c8		 dec	 eax
  00082	89 44 24 50	 mov	 DWORD PTR i$[rsp], eax
$LN4@getMissing:
$LN2@getMissing:

; 229  : 	}
; 230  :     while (((pANTLR3_COMMON_TREE)(current->super))->factory == NULL)

  00086	48 8b 44 24 38	 mov	 rax, QWORD PTR current$[rsp]
  0008b	48 8b 00	 mov	 rax, QWORD PTR [rax]
  0008e	48 83 78 30 00	 cmp	 QWORD PTR [rax+48], 0
  00093	75 2a		 jne	 SHORT $LN3@getMissing

; 231  : 	{
; 232  : 		current = tns->_LT(tns, i--);

  00095	8b 44 24 50	 mov	 eax, DWORD PTR i$[rsp]
  00099	89 44 24 54	 mov	 DWORD PTR tv83[rsp], eax
  0009d	8b 44 24 50	 mov	 eax, DWORD PTR i$[rsp]
  000a1	ff c8		 dec	 eax
  000a3	89 44 24 50	 mov	 DWORD PTR i$[rsp], eax
  000a7	8b 54 24 54	 mov	 edx, DWORD PTR tv83[rsp]
  000ab	48 8b 4c 24 20	 mov	 rcx, QWORD PTR tns$[rsp]
  000b0	48 8b 44 24 20	 mov	 rax, QWORD PTR tns$[rsp]
  000b5	ff 50 10	 call	 QWORD PTR [rax+16]
  000b8	48 89 44 24 38	 mov	 QWORD PTR current$[rsp], rax

; 233  :     }

  000bd	eb c7		 jmp	 SHORT $LN2@getMissing
$LN3@getMissing:

; 234  : 
; 235  : 	node	= current->dupNode(current);

  000bf	48 8b 4c 24 38	 mov	 rcx, QWORD PTR current$[rsp]
  000c4	48 8b 44 24 38	 mov	 rax, QWORD PTR current$[rsp]
  000c9	ff 50 58	 call	 QWORD PTR [rax+88]
  000cc	48 89 44 24 30	 mov	 QWORD PTR node$[rsp], rax

; 236  : 
; 237  : 	// Find the newly dupicated token
; 238  : 	//
; 239  : 	token	= node->getToken(node);

  000d1	48 8b 4c 24 30	 mov	 rcx, QWORD PTR node$[rsp]
  000d6	48 8b 44 24 30	 mov	 rax, QWORD PTR node$[rsp]
  000db	ff 50 28	 call	 QWORD PTR [rax+40]
  000de	48 89 44 24 40	 mov	 QWORD PTR token$[rsp], rax

; 240  : 
; 241  : 	// Create the token text that shows it has been inserted
; 242  : 	//
; 243  : 	token->setText8			(token, (pANTLR3_UINT8)"<missing ");

  000e3	48 8d 15 00 00
	00 00		 lea	 rdx, OFFSET FLAT:??_C@_09MLMDPBIO@?$DMmissing?5@
  000ea	48 8b 4c 24 40	 mov	 rcx, QWORD PTR token$[rsp]
  000ef	48 8b 44 24 40	 mov	 rax, QWORD PTR token$[rsp]
  000f4	ff 90 88 00 00
	00		 call	 QWORD PTR [rax+136]

; 244  : 	text = token->getText	(token);

  000fa	48 8b 4c 24 40	 mov	 rcx, QWORD PTR token$[rsp]
  000ff	48 8b 44 24 40	 mov	 rax, QWORD PTR token$[rsp]
  00104	ff 50 78	 call	 QWORD PTR [rax+120]
  00107	48 89 44 24 48	 mov	 QWORD PTR text$[rsp], rax

; 245  : 	text->append8			(text, (const char *)recognizer->state->tokenNames[expectedTokenType]);

  0010c	48 8b 44 24 70	 mov	 rax, QWORD PTR recognizer$[rsp]
  00111	48 8b 40 10	 mov	 rax, QWORD PTR [rax+16]
  00115	8b 8c 24 88 00
	00 00		 mov	 ecx, DWORD PTR expectedTokenType$[rsp]
  0011c	48 8b 40 48	 mov	 rax, QWORD PTR [rax+72]
  00120	48 8b 14 c8	 mov	 rdx, QWORD PTR [rax+rcx*8]
  00124	48 8b 4c 24 48	 mov	 rcx, QWORD PTR text$[rsp]
  00129	48 8b 44 24 48	 mov	 rax, QWORD PTR text$[rsp]
  0012e	ff 50 38	 call	 QWORD PTR [rax+56]

; 246  : 	text->append8			(text, (const char *)">");

  00131	48 8d 15 00 00
	00 00		 lea	 rdx, OFFSET FLAT:??_C@_01PPODPGHN@?$DO@
  00138	48 8b 4c 24 48	 mov	 rcx, QWORD PTR text$[rsp]
  0013d	48 8b 44 24 48	 mov	 rax, QWORD PTR text$[rsp]
  00142	ff 50 38	 call	 QWORD PTR [rax+56]

; 247  : 	
; 248  : 	// Finally return the pointer to our new node
; 249  : 	//
; 250  : 	return	node;

  00145	48 8b 44 24 30	 mov	 rax, QWORD PTR node$[rsp]

; 251  : }

  0014a	48 83 c4 60	 add	 rsp, 96			; 00000060H
  0014e	5f		 pop	 rdi
  0014f	c3		 ret	 0
getMissingSymbol ENDP
_TEXT	ENDS
; Function compile flags: /Odtp /RTCsu
; File C:\SPO_LAB3\Nix_LabN1\libantlr3c-3.4\src\antlr3treeparser.c
;	COMDAT getCurrentInputSymbol
_TEXT	SEGMENT
tns$ = 32
ctns$ = 40
recognizer$ = 64
istream$ = 72
getCurrentInputSymbol PROC				; COMDAT

; 190  : {

  00000	48 89 54 24 10	 mov	 QWORD PTR [rsp+16], rdx
  00005	48 89 4c 24 08	 mov	 QWORD PTR [rsp+8], rcx
  0000a	57		 push	 rdi
  0000b	48 83 ec 30	 sub	 rsp, 48			; 00000030H

; 191  : 	pANTLR3_TREE_NODE_STREAM		tns;
; 192  :     pANTLR3_COMMON_TREE_NODE_STREAM	ctns;
; 193  : 
; 194  :     tns	    = (pANTLR3_TREE_NODE_STREAM)(istream->super);

  0000f	48 8b 44 24 48	 mov	 rax, QWORD PTR istream$[rsp]
  00014	48 8b 40 10	 mov	 rax, QWORD PTR [rax+16]
  00018	48 89 44 24 20	 mov	 QWORD PTR tns$[rsp], rax

; 195  :     ctns    = tns->ctns;

  0001d	48 8b 44 24 20	 mov	 rax, QWORD PTR tns$[rsp]
  00022	48 8b 00	 mov	 rax, QWORD PTR [rax]
  00025	48 89 44 24 28	 mov	 QWORD PTR ctns$[rsp], rax

; 196  : 	return tns->_LT(tns, 1);

  0002a	ba 01 00 00 00	 mov	 edx, 1
  0002f	48 8b 4c 24 20	 mov	 rcx, QWORD PTR tns$[rsp]
  00034	48 8b 44 24 20	 mov	 rax, QWORD PTR tns$[rsp]
  00039	ff 50 10	 call	 QWORD PTR [rax+16]

; 197  : }

  0003c	48 83 c4 30	 add	 rsp, 48			; 00000030H
  00040	5f		 pop	 rdi
  00041	c3		 ret	 0
getCurrentInputSymbol ENDP
_TEXT	ENDS
; Function compile flags: /Odtp /RTCsu
; File C:\SPO_LAB3\Nix_LabN1\libantlr3c-3.4\src\antlr3treeparser.c
;	COMDAT freeParser
_TEXT	SEGMENT
tv93 = 32
parser$ = 64
freeParser PROC						; COMDAT

; 128  : {

  00000	48 89 4c 24 08	 mov	 QWORD PTR [rsp+8], rcx
  00005	57		 push	 rdi
  00006	48 83 ec 30	 sub	 rsp, 48			; 00000030H

; 129  : 	if	(parser->rec != NULL)

  0000a	48 8b 44 24 40	 mov	 rax, QWORD PTR parser$[rsp]
  0000f	48 83 78 08 00	 cmp	 QWORD PTR [rax+8], 0
  00014	0f 84 8d 00 00
	00		 je	 $LN2@freeParser

; 130  : 	{
; 131  : 		// This may have ben a delegate or delegator parser, in which case the
; 132  : 		// state may already have been freed (and set to NULL therefore)
; 133  : 		// so we ignore the state if we don't have it.
; 134  : 		//
; 135  : 		if	(parser->rec->state != NULL)

  0001a	48 8b 44 24 40	 mov	 rax, QWORD PTR parser$[rsp]
  0001f	48 8b 40 08	 mov	 rax, QWORD PTR [rax+8]
  00023	48 83 78 10 00	 cmp	 QWORD PTR [rax+16], 0
  00028	74 58		 je	 SHORT $LN3@freeParser

; 136  : 		{
; 137  : 			if	(parser->rec->state->following != NULL)

  0002a	48 8b 44 24 40	 mov	 rax, QWORD PTR parser$[rsp]
  0002f	48 8b 40 08	 mov	 rax, QWORD PTR [rax+8]
  00033	48 8b 40 10	 mov	 rax, QWORD PTR [rax+16]
  00037	48 83 78 18 00	 cmp	 QWORD PTR [rax+24], 0
  0003c	74 44		 je	 SHORT $LN4@freeParser

; 138  : 			{
; 139  : 				parser->rec->state->following->free(parser->rec->state->following);

  0003e	48 8b 44 24 40	 mov	 rax, QWORD PTR parser$[rsp]
  00043	48 8b 40 08	 mov	 rax, QWORD PTR [rax+8]
  00047	48 8b 40 10	 mov	 rax, QWORD PTR [rax+16]
  0004b	48 8b 4c 24 40	 mov	 rcx, QWORD PTR parser$[rsp]
  00050	48 8b 49 08	 mov	 rcx, QWORD PTR [rcx+8]
  00054	48 8b 49 10	 mov	 rcx, QWORD PTR [rcx+16]
  00058	48 8b 49 18	 mov	 rcx, QWORD PTR [rcx+24]
  0005c	48 89 4c 24 20	 mov	 QWORD PTR tv93[rsp], rcx
  00061	48 8b 48 18	 mov	 rcx, QWORD PTR [rax+24]
  00065	48 8b 44 24 20	 mov	 rax, QWORD PTR tv93[rsp]
  0006a	ff 50 10	 call	 QWORD PTR [rax+16]

; 140  : 				parser->rec->state->following = NULL;

  0006d	48 8b 44 24 40	 mov	 rax, QWORD PTR parser$[rsp]
  00072	48 8b 40 08	 mov	 rax, QWORD PTR [rax+8]
  00076	48 8b 40 10	 mov	 rax, QWORD PTR [rax+16]
  0007a	48 c7 40 18 00
	00 00 00	 mov	 QWORD PTR [rax+24], 0
$LN4@freeParser:
$LN3@freeParser:

; 141  : 			}
; 142  : 		}
; 143  : 	    parser->rec->free(parser->rec);

  00082	48 8b 44 24 40	 mov	 rax, QWORD PTR parser$[rsp]
  00087	48 8b 40 08	 mov	 rax, QWORD PTR [rax+8]
  0008b	48 8b 4c 24 40	 mov	 rcx, QWORD PTR parser$[rsp]
  00090	48 8b 49 08	 mov	 rcx, QWORD PTR [rcx+8]
  00094	ff 90 20 01 00
	00		 call	 QWORD PTR [rax+288]

; 144  : 	    parser->rec	= NULL;

  0009a	48 8b 44 24 40	 mov	 rax, QWORD PTR parser$[rsp]
  0009f	48 c7 40 08 00
	00 00 00	 mov	 QWORD PTR [rax+8], 0
$LN2@freeParser:

; 145  :     }
; 146  : 
; 147  :     ANTLR3_FREE(parser);

  000a7	48 8b 4c 24 40	 mov	 rcx, QWORD PTR parser$[rsp]
  000ac	ff 15 00 00 00
	00		 call	 QWORD PTR __imp_free

; 148  : }

  000b2	48 83 c4 30	 add	 rsp, 48			; 00000030H
  000b6	5f		 pop	 rdi
  000b7	c3		 ret	 0
freeParser ENDP
_TEXT	ENDS
; Function compile flags: /Odtp /RTCsu
; File C:\SPO_LAB3\Nix_LabN1\libantlr3c-3.4\src\antlr3treeparser.c
;	COMDAT getTreeNodeStream
_TEXT	SEGMENT
parser$ = 16
getTreeNodeStream PROC					; COMDAT

; 164  : {

  00000	48 89 4c 24 08	 mov	 QWORD PTR [rsp+8], rcx
  00005	57		 push	 rdi

; 165  :     return  parser->ctnstream;

  00006	48 8b 44 24 10	 mov	 rax, QWORD PTR parser$[rsp]
  0000b	48 8b 40 10	 mov	 rax, QWORD PTR [rax+16]

; 166  : }

  0000f	5f		 pop	 rdi
  00010	c3		 ret	 0
getTreeNodeStream ENDP
_TEXT	ENDS
; Function compile flags: /Odtp /RTCsu
; File C:\SPO_LAB3\Nix_LabN1\libantlr3c-3.4\src\antlr3treeparser.c
;	COMDAT setTreeNodeStream
_TEXT	SEGMENT
parser$ = 48
input$ = 56
setTreeNodeStream PROC					; COMDAT

; 154  : {

  00000	48 89 54 24 10	 mov	 QWORD PTR [rsp+16], rdx
  00005	48 89 4c 24 08	 mov	 QWORD PTR [rsp+8], rcx
  0000a	57		 push	 rdi
  0000b	48 83 ec 20	 sub	 rsp, 32			; 00000020H

; 155  :     parser->ctnstream = input;

  0000f	48 8b 44 24 30	 mov	 rax, QWORD PTR parser$[rsp]
  00014	48 8b 4c 24 38	 mov	 rcx, QWORD PTR input$[rsp]
  00019	48 89 48 10	 mov	 QWORD PTR [rax+16], rcx

; 156  :     parser->rec->reset		(parser->rec);

  0001d	48 8b 44 24 30	 mov	 rax, QWORD PTR parser$[rsp]
  00022	48 8b 40 08	 mov	 rax, QWORD PTR [rax+8]
  00026	48 8b 4c 24 30	 mov	 rcx, QWORD PTR parser$[rsp]
  0002b	48 8b 49 08	 mov	 rcx, QWORD PTR [rcx+8]
  0002f	ff 90 18 01 00
	00		 call	 QWORD PTR [rax+280]

; 157  :     parser->ctnstream->reset	(parser->ctnstream);

  00035	48 8b 44 24 30	 mov	 rax, QWORD PTR parser$[rsp]
  0003a	48 8b 40 10	 mov	 rax, QWORD PTR [rax+16]
  0003e	48 8b 4c 24 30	 mov	 rcx, QWORD PTR parser$[rsp]
  00043	48 8b 49 10	 mov	 rcx, QWORD PTR [rcx+16]
  00047	ff 90 d8 05 00
	00		 call	 QWORD PTR [rax+1496]

; 158  : }

  0004d	48 83 c4 20	 add	 rsp, 32			; 00000020H
  00051	5f		 pop	 rdi
  00052	c3		 ret	 0
setTreeNodeStream ENDP
_TEXT	ENDS
; Function compile flags: /Odtp /RTCsu
; File C:\SPO_LAB3\Nix_LabN1\libantlr3c-3.4\src\antlr3treeparser.c
;	COMDAT mismatch
_TEXT	SEGMENT
recognizer$ = 48
ttype$ = 56
follow$ = 64
mismatch PROC						; COMDAT

; 175  : {

  00000	4c 89 44 24 18	 mov	 QWORD PTR [rsp+24], r8
  00005	89 54 24 10	 mov	 DWORD PTR [rsp+16], edx
  00009	48 89 4c 24 08	 mov	 QWORD PTR [rsp+8], rcx
  0000e	57		 push	 rdi
  0000f	48 83 ec 20	 sub	 rsp, 32			; 00000020H

; 176  :     recognizer->exConstruct(recognizer);

  00013	48 8b 4c 24 30	 mov	 rcx, QWORD PTR recognizer$[rsp]
  00018	48 8b 44 24 30	 mov	 rax, QWORD PTR recognizer$[rsp]
  0001d	ff 90 10 01 00
	00		 call	 QWORD PTR [rax+272]

; 177  :     recognizer->recoverFromMismatchedToken(recognizer, ttype, follow);

  00023	4c 8b 44 24 40	 mov	 r8, QWORD PTR follow$[rsp]
  00028	8b 54 24 38	 mov	 edx, DWORD PTR ttype$[rsp]
  0002c	48 8b 4c 24 30	 mov	 rcx, QWORD PTR recognizer$[rsp]
  00031	48 8b 44 24 30	 mov	 rax, QWORD PTR recognizer$[rsp]
  00036	ff 90 a0 00 00
	00		 call	 QWORD PTR [rax+160]

; 178  : }

  0003c	48 83 c4 20	 add	 rsp, 32			; 00000020H
  00040	5f		 pop	 rdi
  00041	c3		 ret	 0
mismatch ENDP
_TEXT	ENDS
; Function compile flags: /Odtp /RTCsu
; File C:\SPO_LAB3\Nix_LabN1\libantlr3c-3.4\src\antlr3treeparser.c
;	COMDAT antlr3TreeParserNewStream
_TEXT	SEGMENT
parser$ = 32
sizeHint$ = 64
ctnstream$ = 72
state$ = 80
antlr3TreeParserNewStream PROC				; COMDAT

; 53   : {

$LN5:
  00000	4c 89 44 24 18	 mov	 QWORD PTR [rsp+24], r8
  00005	48 89 54 24 10	 mov	 QWORD PTR [rsp+16], rdx
  0000a	89 4c 24 08	 mov	 DWORD PTR [rsp+8], ecx
  0000e	57		 push	 rdi
  0000f	48 83 ec 30	 sub	 rsp, 48			; 00000030H

; 54   : 	pANTLR3_TREE_PARSER	    parser;
; 55   : 
; 56   : 	/** Allocate tree parser memory
; 57   : 	*/
; 58   : 	parser  =(pANTLR3_TREE_PARSER) ANTLR3_MALLOC(sizeof(ANTLR3_TREE_PARSER));

  00013	b9 30 00 00 00	 mov	 ecx, 48			; 00000030H
  00018	ff 15 00 00 00
	00		 call	 QWORD PTR __imp_malloc
  0001e	48 89 44 24 20	 mov	 QWORD PTR parser$[rsp], rax

; 59   : 
; 60   : 	if	(parser == NULL)

  00023	48 83 7c 24 20
	00		 cmp	 QWORD PTR parser$[rsp], 0
  00029	75 07		 jne	 SHORT $LN2@antlr3Tree

; 61   : 	{
; 62   : 		return	NULL;

  0002b	33 c0		 xor	 eax, eax
  0002d	e9 fd 00 00 00	 jmp	 $LN1@antlr3Tree
$LN2@antlr3Tree:

; 63   : 	}
; 64   : 
; 65   : 	/* Create and install a base recognizer which does most of the work for us
; 66   : 	*/
; 67   : 	parser->rec =  antlr3BaseRecognizerNew(ANTLR3_TYPE_PARSER, sizeHint, state);

  00032	4c 8b 44 24 50	 mov	 r8, QWORD PTR state$[rsp]
  00037	8b 54 24 40	 mov	 edx, DWORD PTR sizeHint$[rsp]
  0003b	b9 02 00 00 00	 mov	 ecx, 2
  00040	e8 00 00 00 00	 call	 antlr3BaseRecognizerNew
  00045	48 8b 4c 24 20	 mov	 rcx, QWORD PTR parser$[rsp]
  0004a	48 89 41 08	 mov	 QWORD PTR [rcx+8], rax

; 68   : 
; 69   : 	if	(parser->rec == NULL)

  0004e	48 8b 44 24 20	 mov	 rax, QWORD PTR parser$[rsp]
  00053	48 83 78 08 00	 cmp	 QWORD PTR [rax+8], 0
  00058	75 14		 jne	 SHORT $LN3@antlr3Tree

; 70   : 	{
; 71   : 		parser->free(parser);

  0005a	48 8b 4c 24 20	 mov	 rcx, QWORD PTR parser$[rsp]
  0005f	48 8b 44 24 20	 mov	 rax, QWORD PTR parser$[rsp]
  00064	ff 50 28	 call	 QWORD PTR [rax+40]

; 72   : 		return	NULL;

  00067	33 c0		 xor	 eax, eax
  00069	e9 c1 00 00 00	 jmp	 $LN1@antlr3Tree
$LN3@antlr3Tree:

; 73   : 	}
; 74   : 
; 75   : 	/* Ensure we can track back to the tree parser super structure
; 76   : 	* from the base recognizer structure
; 77   : 	*/
; 78   : 	parser->rec->super	= parser;

  0006e	48 8b 44 24 20	 mov	 rax, QWORD PTR parser$[rsp]
  00073	48 8b 40 08	 mov	 rax, QWORD PTR [rax+8]
  00077	48 8b 4c 24 20	 mov	 rcx, QWORD PTR parser$[rsp]
  0007c	48 89 08	 mov	 QWORD PTR [rax], rcx

; 79   : 	parser->rec->type	= ANTLR3_TYPE_TREE_PARSER;

  0007f	48 8b 44 24 20	 mov	 rax, QWORD PTR parser$[rsp]
  00084	48 8b 40 08	 mov	 rax, QWORD PTR [rax+8]
  00088	c7 40 08 04 00
	00 00		 mov	 DWORD PTR [rax+8], 4

; 80   : 
; 81   : 	/* Install our base recognizer overrides
; 82   : 	*/
; 83   : 	parser->rec->mismatch				= mismatch;

  0008f	48 8b 44 24 20	 mov	 rax, QWORD PTR parser$[rsp]
  00094	48 8b 40 08	 mov	 rax, QWORD PTR [rax+8]
  00098	48 8d 0d 00 00
	00 00		 lea	 rcx, OFFSET FLAT:mismatch
  0009f	48 89 48 40	 mov	 QWORD PTR [rax+64], rcx

; 84   : 	parser->rec->exConstruct			= antlr3MTNExceptionNew;

  000a3	48 8b 44 24 20	 mov	 rax, QWORD PTR parser$[rsp]
  000a8	48 8b 40 08	 mov	 rax, QWORD PTR [rax+8]
  000ac	48 8d 0d 00 00
	00 00		 lea	 rcx, OFFSET FLAT:antlr3MTNExceptionNew
  000b3	48 89 88 10 01
	00 00		 mov	 QWORD PTR [rax+272], rcx

; 85   : 	parser->rec->getCurrentInputSymbol	= getCurrentInputSymbol;

  000ba	48 8b 44 24 20	 mov	 rax, QWORD PTR parser$[rsp]
  000bf	48 8b 40 08	 mov	 rax, QWORD PTR [rax+8]
  000c3	48 8d 0d 00 00
	00 00		 lea	 rcx, OFFSET FLAT:getCurrentInputSymbol
  000ca	48 89 88 f8 00
	00 00		 mov	 QWORD PTR [rax+248], rcx

; 86   : 	parser->rec->getMissingSymbol		= getMissingSymbol;

  000d1	48 8b 44 24 20	 mov	 rax, QWORD PTR parser$[rsp]
  000d6	48 8b 40 08	 mov	 rax, QWORD PTR [rax+8]
  000da	48 8d 0d 00 00
	00 00		 lea	 rcx, OFFSET FLAT:getMissingSymbol
  000e1	48 89 88 00 01
	00 00		 mov	 QWORD PTR [rax+256], rcx

; 87   : 
; 88   : 	/* Install tree parser API
; 89   : 	*/
; 90   : 	parser->getTreeNodeStream	=  getTreeNodeStream;

  000e8	48 8b 44 24 20	 mov	 rax, QWORD PTR parser$[rsp]
  000ed	48 8d 0d 00 00
	00 00		 lea	 rcx, OFFSET FLAT:getTreeNodeStream
  000f4	48 89 48 20	 mov	 QWORD PTR [rax+32], rcx

; 91   : 	parser->setTreeNodeStream	=  setTreeNodeStream;

  000f8	48 8b 44 24 20	 mov	 rax, QWORD PTR parser$[rsp]
  000fd	48 8d 0d 00 00
	00 00		 lea	 rcx, OFFSET FLAT:setTreeNodeStream
  00104	48 89 48 18	 mov	 QWORD PTR [rax+24], rcx

; 92   : 	parser->free		=  freeParser;

  00108	48 8b 44 24 20	 mov	 rax, QWORD PTR parser$[rsp]
  0010d	48 8d 0d 00 00
	00 00		 lea	 rcx, OFFSET FLAT:freeParser
  00114	48 89 48 28	 mov	 QWORD PTR [rax+40], rcx

; 93   : 
; 94   : 	/* Install the tree node stream
; 95   : 	*/
; 96   : 	parser->setTreeNodeStream(parser, ctnstream);

  00118	48 8b 54 24 48	 mov	 rdx, QWORD PTR ctnstream$[rsp]
  0011d	48 8b 4c 24 20	 mov	 rcx, QWORD PTR parser$[rsp]
  00122	48 8b 44 24 20	 mov	 rax, QWORD PTR parser$[rsp]
  00127	ff 50 18	 call	 QWORD PTR [rax+24]

; 97   : 
; 98   : 	return  parser;

  0012a	48 8b 44 24 20	 mov	 rax, QWORD PTR parser$[rsp]
$LN1@antlr3Tree:

; 99   : }

  0012f	48 83 c4 30	 add	 rsp, 48			; 00000030H
  00133	5f		 pop	 rdi
  00134	c3		 ret	 0
antlr3TreeParserNewStream ENDP
_TEXT	ENDS
; Function compile flags: /Odtp /RTCsu
; File C:\SPO_LAB3\Nix_LabN1\libantlr3c-3.4\src\antlr3treeparser.c
;	COMDAT antlr3MTNExceptionNew
_TEXT	SEGMENT
recognizer$ = 48
antlr3MTNExceptionNew PROC				; COMDAT

; 112  : {

$LN3:
  00000	48 89 4c 24 08	 mov	 QWORD PTR [rsp+8], rcx
  00005	57		 push	 rdi
  00006	48 83 ec 20	 sub	 rsp, 32			; 00000020H

; 113  :     /* Create a basic recognition exception structure
; 114  :      */
; 115  :     antlr3RecognitionExceptionNew(recognizer);

  0000a	48 8b 4c 24 30	 mov	 rcx, QWORD PTR recognizer$[rsp]
  0000f	e8 00 00 00 00	 call	 antlr3RecognitionExceptionNew

; 116  : 
; 117  :     /* Now update it to indicate this is a Mismatched token exception
; 118  :      */
; 119  :     recognizer->state->exception->name		= ANTLR3_MISMATCHED_TREE_NODE_NAME;

  00014	48 8b 44 24 30	 mov	 rax, QWORD PTR recognizer$[rsp]
  00019	48 8b 40 10	 mov	 rax, QWORD PTR [rax+16]
  0001d	48 8b 40 08	 mov	 rax, QWORD PTR [rax+8]
  00021	48 8d 0d 00 00
	00 00		 lea	 rcx, OFFSET FLAT:??_C@_0CO@BHFJHLHM@org?4antlr?4runtime?4MismatchedTre@
  00028	48 89 48 08	 mov	 QWORD PTR [rax+8], rcx

; 120  :     recognizer->state->exception->type		= ANTLR3_MISMATCHED_TREE_NODE_EXCEPTION;

  0002c	48 8b 44 24 30	 mov	 rax, QWORD PTR recognizer$[rsp]
  00031	48 8b 40 10	 mov	 rax, QWORD PTR [rax+16]
  00035	48 8b 40 08	 mov	 rax, QWORD PTR [rax+8]
  00039	c7 00 07 00 00
	00		 mov	 DWORD PTR [rax], 7

; 121  : 
; 122  :     return;
; 123  : }

  0003f	48 83 c4 20	 add	 rsp, 32			; 00000020H
  00043	5f		 pop	 rdi
  00044	c3		 ret	 0
antlr3MTNExceptionNew ENDP
_TEXT	ENDS
END
